; Function Attrs: null_pointer_is_valid sspstrong uwtable
define internal noundef zeroext i1 @module_find_pref_cb(ptr readnone captures(none) %0, ptr noundef %1, ptr noundef captures(none) %2) #1 {
  %4 = icmp eq ptr %1, null
  br i1 %4, label %14, label %5

5:                                                ; preds = %3
  %6 = getelementptr inbounds nuw i8, ptr %1, i64 40
  %7 = load ptr, ptr %6, align 8
  %8 = getelementptr inbounds nuw i8, ptr %2, i64 8
  %9 = load ptr, ptr %8, align 8
  %10 = tail call ptr @g_list_find_custom(ptr noundef %7, ptr noundef %9, ptr noundef nonnull @preference_match)
  %11 = icmp eq ptr %10, null
  br i1 %11, label %14, label %12

12:                                               ; preds = %5
  store ptr %10, ptr %2, align 8
  %13 = getelementptr inbounds nuw i8, ptr %2, i64 16
  store ptr %1, ptr %13, align 8
  br label %14

14:                                               ; preds = %5, %3, %12
  %.0 = phi i1 [ true, %12 ], [ false, %3 ], [ false, %5 ]
  ret i1 %.0
}